target datalayout = "e-m:e-p270:32:32-p271:32:32-p272:64:64-i64:64-i128:128-f80:128-n8:16:32:64-S128"
target triple = "x86_64-pc-linux-gnu"

@.str.37 = private unnamed_addr constant [3 x i8] c"TB\00", align 1
@.str.38 = private unnamed_addr constant [4 x i8] c"TiB\00", align 1
@.str.39 = private unnamed_addr constant [3 x i8] c"GB\00", align 1
@.str.40 = private unnamed_addr constant [4 x i8] c"GiB\00", align 1
@.str.41 = private unnamed_addr constant [3 x i8] c"MB\00", align 1
@.str.42 = private unnamed_addr constant [4 x i8] c"MiB\00", align 1
@.str.43 = private unnamed_addr constant [3 x i8] c"kB\00", align 1
@.str.44 = private unnamed_addr constant [4 x i8] c"kiB\00", align 1

; Function Attrs: inlinehint nounwind uwtable
define internal i32 @hwloc_strncasecmp(ptr noundef %0, ptr noundef %1, i64 noundef %2) #5 {
  %4 = alloca ptr, align 8
  %5 = alloca ptr, align 8
  %6 = alloca i64, align 8
  store ptr %0, ptr %4, align 8, !tbaa !8
  store ptr %1, ptr %5, align 8, !tbaa !8
  store i64 %2, ptr %6, align 8, !tbaa !10
  %7 = load ptr, ptr %4, align 8, !tbaa !8
  %8 = load ptr, ptr %5, align 8, !tbaa !8
  %9 = load i64, ptr %6, align 8, !tbaa !10
  %10 = call i32 @strncasecmp(ptr noundef %7, ptr noundef %8, i64 noundef %9) #14
  ret i32 %10
}

; Function Attrs: nounwind uwtable
define internal i64 @hwloc_synthetic_parse_memory_attr(ptr noundef %0, ptr noundef %1) #0 {
  %3 = alloca ptr, align 8
  %4 = alloca ptr, align 8
  %5 = alloca ptr, align 8
  %6 = alloca i64, align 8
  store ptr %0, ptr %3, align 8, !tbaa !8
  store ptr %1, ptr %4, align 8, !tbaa !77
  call void @llvm.lifetime.start.p0(i64 8, ptr %5) #13
  call void @llvm.lifetime.start.p0(i64 8, ptr %6) #13
  %7 = load ptr, ptr %3, align 8, !tbaa !8
  %8 = call i64 @strtoull(ptr noundef %7, ptr noundef %5, i32 noundef 0) #13
  store i64 %8, ptr %6, align 8, !tbaa !10
  %9 = load ptr, ptr %5, align 8, !tbaa !8
  %10 = call i32 @hwloc_strncasecmp(ptr noundef %9, ptr noundef @.str.37, i64 noundef 2)
  %11 = icmp ne i32 %10, 0
  br i1 %11, label %17, label %12

12:                                               ; preds = %2
  %13 = load i64, ptr %6, align 8, !tbaa !10
  %14 = mul i64 %13, 1000000000000
  store i64 %14, ptr %6, align 8, !tbaa !10
  %15 = load ptr, ptr %5, align 8, !tbaa !8
  %16 = getelementptr inbounds i8, ptr %15, i64 2
  store ptr %16, ptr %5, align 8, !tbaa !8
  br label %87

17:                                               ; preds = %2
  %18 = load ptr, ptr %5, align 8, !tbaa !8
  %19 = call i32 @hwloc_strncasecmp(ptr noundef %18, ptr noundef @.str.38, i64 noundef 3)
  %20 = icmp ne i32 %19, 0
  br i1 %20, label %26, label %21

21:                                               ; preds = %17
  %22 = load i64, ptr %6, align 8, !tbaa !10
  %23 = shl i64 %22, 40
  store i64 %23, ptr %6, align 8, !tbaa !10
  %24 = load ptr, ptr %5, align 8, !tbaa !8
  %25 = getelementptr inbounds i8, ptr %24, i64 3
  store ptr %25, ptr %5, align 8, !tbaa !8
  br label %86

26:                                               ; preds = %17
  %27 = load ptr, ptr %5, align 8, !tbaa !8
  %28 = call i32 @hwloc_strncasecmp(ptr noundef %27, ptr noundef @.str.39, i64 noundef 2)
  %29 = icmp ne i32 %28, 0
  br i1 %29, label %35, label %30

30:                                               ; preds = %26
  %31 = load i64, ptr %6, align 8, !tbaa !10
  %32 = mul i64 %31, 1000000000
  store i64 %32, ptr %6, align 8, !tbaa !10
  %33 = load ptr, ptr %5, align 8, !tbaa !8
  %34 = getelementptr inbounds i8, ptr %33, i64 2
  store ptr %34, ptr %5, align 8, !tbaa !8
  br label %85

35:                                               ; preds = %26
  %36 = load ptr, ptr %5, align 8, !tbaa !8
  %37 = call i32 @hwloc_strncasecmp(ptr noundef %36, ptr noundef @.str.40, i64 noundef 3)
  %38 = icmp ne i32 %37, 0
  br i1 %38, label %44, label %39

39:                                               ; preds = %35
  %40 = load i64, ptr %6, align 8, !tbaa !10
  %41 = shl i64 %40, 30
  store i64 %41, ptr %6, align 8, !tbaa !10
  %42 = load ptr, ptr %5, align 8, !tbaa !8
  %43 = getelementptr inbounds i8, ptr %42, i64 3
  store ptr %43, ptr %5, align 8, !tbaa !8
  br label %84

44:                                               ; preds = %35
  %45 = load ptr, ptr %5, align 8, !tbaa !8
  %46 = call i32 @hwloc_strncasecmp(ptr noundef %45, ptr noundef @.str.41, i64 noundef 2)
  %47 = icmp ne i32 %46, 0
  br i1 %47, label %53, label %48

48:                                               ; preds = %44
  %49 = load i64, ptr %6, align 8, !tbaa !10
  %50 = mul i64 %49, 1000000
  store i64 %50, ptr %6, align 8, !tbaa !10
  %51 = load ptr, ptr %5, align 8, !tbaa !8
  %52 = getelementptr inbounds i8, ptr %51, i64 2
  store ptr %52, ptr %5, align 8, !tbaa !8
  br label %83

53:                                               ; preds = %44
  %54 = load ptr, ptr %5, align 8, !tbaa !8
  %55 = call i32 @hwloc_strncasecmp(ptr noundef %54, ptr noundef @.str.42, i64 noundef 3)
  %56 = icmp ne i32 %55, 0
  br i1 %56, label %62, label %57

57:                                               ; preds = %53
  %58 = load i64, ptr %6, align 8, !tbaa !10
  %59 = shl i64 %58, 20
  store i64 %59, ptr %6, align 8, !tbaa !10
  %60 = load ptr, ptr %5, align 8, !tbaa !8
  %61 = getelementptr inbounds i8, ptr %60, i64 3
  store ptr %61, ptr %5, align 8, !tbaa !8
  br label %82

62:                                               ; preds = %53
  %63 = load ptr, ptr %5, align 8, !tbaa !8
  %64 = call i32 @hwloc_strncasecmp(ptr noundef %63, ptr noundef @.str.43, i64 noundef 2)
  %65 = icmp ne i32 %64, 0
  br i1 %65, label %71, label %66

66:                                               ; preds = %62
  %67 = load i64, ptr %6, align 8, !tbaa !10
  %68 = mul i64 %67, 1000
  store i64 %68, ptr %6, align 8, !tbaa !10
  %69 = load ptr, ptr %5, align 8, !tbaa !8
  %70 = getelementptr inbounds i8, ptr %69, i64 2
  store ptr %70, ptr %5, align 8, !tbaa !8
  br label %81

71:                                               ; preds = %62
  %72 = load ptr, ptr %5, align 8, !tbaa !8
  %73 = call i32 @hwloc_strncasecmp(ptr noundef %72, ptr noundef @.str.44, i64 noundef 3)
  %74 = icmp ne i32 %73, 0
  br i1 %74, label %80, label %75

75:                                               ; preds = %71
  %76 = load i64, ptr %6, align 8, !tbaa !10
  %77 = shl i64 %76, 10
  store i64 %77, ptr %6, align 8, !tbaa !10
  %78 = load ptr, ptr %5, align 8, !tbaa !8
  %79 = getelementptr inbounds i8, ptr %78, i64 3
  store ptr %79, ptr %5, align 8, !tbaa !8
  br label %80

80:                                               ; preds = %75, %71
  br label %81

81:                                               ; preds = %80, %66
  br label %82

82:                                               ; preds = %81, %57
  br label %83

83:                                               ; preds = %82, %48
  br label %84

84:                                               ; preds = %83, %39
  br label %85

85:                                               ; preds = %84, %30
  br label %86

86:                                               ; preds = %85, %21
  br label %87

87:                                               ; preds = %86, %12
  %88 = load ptr, ptr %5, align 8, !tbaa !8
  %89 = load ptr, ptr %4, align 8, !tbaa !77
  store ptr %88, ptr %89, align 8, !tbaa !8
  %90 = load i64, ptr %6, align 8, !tbaa !10
  call void @llvm.lifetime.end.p0(i64 8, ptr %6) #13
  call void @llvm.lifetime.end.p0(i64 8, ptr %5) #13
  ret i64 %90
}