; Function Attrs: mustprogress nofree nounwind willreturn uwtable
define internal fastcc i64 @hwloc_synthetic_parse_memory_attr(ptr noundef %0, ptr noundef nonnull writeonly captures(none) initializes((0, 8)) %1) unnamed_addr #13 {
  %3 = alloca ptr, align 8
  call void @llvm.lifetime.start.p0(i64 8, ptr nonnull %3) #22
  %4 = call i64 @strtoull(ptr noundef %0, ptr noundef nonnull %3, i32 noundef 0) #22
  %5 = load ptr, ptr %3, align 8, !tbaa !81
  %6 = tail call i32 @strncasecmp(ptr noundef readonly %5, ptr noundef nonnull @.str.37, i64 noundef 2) #21
  %.not = icmp eq i32 %6, 0
  br i1 %.not, label %7, label %10

7:                                                ; preds = %2
  %8 = mul i64 %4, 1000000000000
  %9 = getelementptr inbounds nuw i8, ptr %5, i64 2
  br label %45

10:                                               ; preds = %2
  %11 = tail call i32 @strncasecmp(ptr noundef readonly %5, ptr noundef nonnull @.str.38, i64 noundef 3) #21
  %.not10 = icmp eq i32 %11, 0
  br i1 %.not10, label %12, label %15

12:                                               ; preds = %10
  %13 = shl i64 %4, 40
  %14 = getelementptr inbounds nuw i8, ptr %5, i64 3
  br label %45

15:                                               ; preds = %10
  %16 = tail call i32 @strncasecmp(ptr noundef readonly %5, ptr noundef nonnull @.str.39, i64 noundef 2) #21
  %.not11 = icmp eq i32 %16, 0
  br i1 %.not11, label %17, label %20

17:                                               ; preds = %15
  %18 = mul i64 %4, 1000000000
  %19 = getelementptr inbounds nuw i8, ptr %5, i64 2
  br label %45

20:                                               ; preds = %15
  %21 = tail call i32 @strncasecmp(ptr noundef readonly %5, ptr noundef nonnull @.str.40, i64 noundef 3) #21
  %.not12 = icmp eq i32 %21, 0
  br i1 %.not12, label %22, label %25

22:                                               ; preds = %20
  %23 = shl i64 %4, 30
  %24 = getelementptr inbounds nuw i8, ptr %5, i64 3
  br label %45

25:                                               ; preds = %20
  %26 = tail call i32 @strncasecmp(ptr noundef readonly %5, ptr noundef nonnull @.str.41, i64 noundef 2) #21
  %.not13 = icmp eq i32 %26, 0
  br i1 %.not13, label %27, label %30

27:                                               ; preds = %25
  %28 = mul i64 %4, 1000000
  %29 = getelementptr inbounds nuw i8, ptr %5, i64 2
  br label %45

30:                                               ; preds = %25
  %31 = tail call i32 @strncasecmp(ptr noundef readonly %5, ptr noundef nonnull @.str.42, i64 noundef 3) #21
  %.not14 = icmp eq i32 %31, 0
  br i1 %.not14, label %32, label %35

32:                                               ; preds = %30
  %33 = shl i64 %4, 20
  %34 = getelementptr inbounds nuw i8, ptr %5, i64 3
  br label %45

35:                                               ; preds = %30
  %36 = tail call i32 @strncasecmp(ptr noundef readonly %5, ptr noundef nonnull @.str.43, i64 noundef 2) #21
  %.not15 = icmp eq i32 %36, 0
  br i1 %.not15, label %37, label %40

37:                                               ; preds = %35
  %38 = mul i64 %4, 1000
  %39 = getelementptr inbounds nuw i8, ptr %5, i64 2
  br label %45

40:                                               ; preds = %35
  %41 = tail call i32 @strncasecmp(ptr noundef readonly %5, ptr noundef nonnull @.str.44, i64 noundef 3) #21
  %.not16 = icmp eq i32 %41, 0
  br i1 %.not16, label %42, label %45

42:                                               ; preds = %40
  %43 = shl i64 %4, 10
  %44 = getelementptr inbounds nuw i8, ptr %5, i64 3
  br label %45

45:                                               ; preds = %12, %22, %32, %40, %42, %37, %27, %17, %7
  %46 = phi ptr [ %5, %40 ], [ %44, %42 ], [ %39, %37 ], [ %34, %32 ], [ %29, %27 ], [ %24, %22 ], [ %19, %17 ], [ %14, %12 ], [ %9, %7 ]
  %.0 = phi i64 [ %4, %40 ], [ %43, %42 ], [ %38, %37 ], [ %33, %32 ], [ %28, %27 ], [ %23, %22 ], [ %18, %17 ], [ %13, %12 ], [ %8, %7 ]
  store ptr %46, ptr %1, align 8, !tbaa !81
  call void @llvm.lifetime.end.p0(i64 8, ptr nonnull %3) #22
  ret i64 %.0
}